; Function Attrs: mustprogress nofree norecurse nosync nounwind willreturn memory(argmem: read) uwtable
define noundef i64 @_ZNK5boost9container3pmr25monotonic_buffer_resource17remaining_storageEm(ptr nocapture noundef nonnull readonly align 8 dereferenceable(64) %0, i64 noundef %1) local_unnamed_addr #6 align 2 {
  %3 = add i64 %1, -1
  %4 = sub i64 0, %1
  %5 = getelementptr inbounds nuw i8, ptr %0, i64 24
  %6 = load ptr, ptr %5, align 8, !tbaa !17
  %7 = ptrtoint ptr %6 to i64
  %8 = add i64 %3, %7
  %9 = and i64 %8, %4
  %10 = sub i64 %9, %7
  %11 = getelementptr inbounds nuw i8, ptr %0, i64 32
  %12 = load i64, ptr %11, align 8, !tbaa !18
  %spec.select.i = tail call noundef i64 @llvm.usub.sat.i64(i64 %12, i64 %10)
  ret i64 %spec.select.i
}